target datalayout = "e-m:e-p270:32:32-p271:32:32-p272:64:64-i64:64-i128:128-f80:128-n8:16:32:64-S128"
target triple = "x86_64-pc-linux-gnu"

%union.pthread_mutex_t = type { %struct.__pthread_mutex_s }
%struct.__pthread_mutex_s = type { i32, i32, i32, i32, i32, i16, i16, %struct.__pthread_internal_list }
%struct.__pthread_internal_list = type { ptr, ptr }
%struct.settings = type { i64, i32, i32, i32, ptr, i32, i32, i32, ptr, ptr, i32, double, i32, i32, i32, i8, i32, i32, i8, i32, i32, i32, i32, i32, i32, i8, i8, i8, i8, i8, i8, i8, i32, i32, double, double, i32, i32, i8, i32, i8, i8, ptr, i32, i32, i32, i32, double, double, i32, i8, i32, i32, i32, i32, i32, i8, i8, i8, ptr, i32, i32, i32, i32, i32, i32, i32, i32, i32, i32, double, i8, i32, i32, ptr, i32 }
%union.pthread_cond_t = type { %struct.__pthread_cond_s }
%struct.__pthread_cond_s = type { %union.__atomic_wide_counter, %union.__atomic_wide_counter, [2 x i32], [2 x i32], i32, i32, [2 x i32] }
%union.__atomic_wide_counter = type { i64 }
%struct.timeval = type { i64, i64 }
%struct.LIBEVENT_THREAD = type { i64, ptr, %struct.thread_notify, %struct.thread_notify, %union.pthread_mutex_t, %struct.iop_head_s, i32, i32, i32, %struct.thread_stats, [3 x %struct.io_queue_s], ptr, ptr, ptr, ptr, ptr, ptr, ptr, i32 }
%struct.thread_notify = type { %struct.event, i32 }
%struct.event = type { %struct.event_callback, %union.anon.0, i32, ptr, %union.anon.2, i16, i16, %struct.timeval }
%struct.event_callback = type { %struct.anon, i16, i8, i8, %union.anon, ptr }
%struct.anon = type { ptr, ptr }
%union.anon = type { ptr }
%union.anon.0 = type { %struct.anon.1 }
%struct.anon.1 = type { ptr, ptr }
%union.anon.2 = type { %struct.anon.3 }
%struct.anon.3 = type { %struct.anon.4, %struct.timeval }
%struct.anon.4 = type { ptr, ptr }
%struct.iop_head_s = type { ptr, ptr }
%struct.thread_stats = type { %union.pthread_mutex_t, i64, i64, i64, i64, i64, i64, i64, i64, i64, i64, i64, i64, i64, i64, i64, i64, i64, i64, i64, i64, i64, i64, i64, i64, i64, i64, i64, i64, i64, i64, [64 x %struct.slab_stats], [256 x i64], i64, i64, i64 }
%struct.slab_stats = type { i64, i64, i64, i64, i64, i64, i64, i64 }
%struct.io_queue_s = type { ptr, %struct.iop_head_s, ptr, i32 }

@settings = external global %struct.settings, align 8
@worker_hang_lock = internal global %union.pthread_mutex_t zeroinitializer, align 8
@stderr = external global ptr, align 8
@init_lock = internal global %union.pthread_mutex_t zeroinitializer, align 8
@init_count = internal global i32 0, align 4
@threads = internal global ptr null, align 8
@.str.1 = private unnamed_addr constant [15 x i8] c"stopped assoc\0A\00", align 1
@.str.2 = private unnamed_addr constant [24 x i8] c"asking workers to stop\0A\00", align 1
@.str.3 = private unnamed_addr constant [35 x i8] c"asking background threads to stop\0A\00", align 1
@.str.4 = private unnamed_addr constant [21 x i8] c"stopped lru crawler\0A\00", align 1
@.str.5 = private unnamed_addr constant [20 x i8] c"stopped maintainer\0A\00", align 1
@.str.6 = private unnamed_addr constant [20 x i8] c"stopped slab mover\0A\00", align 1
@.str.7 = private unnamed_addr constant [23 x i8] c"stopped logger thread\0A\00", align 1
@.str.8 = private unnamed_addr constant [29 x i8] c"stopped idle timeout thread\0A\00", align 1
@.str.9 = private unnamed_addr constant [21 x i8] c"closing connections\0A\00", align 1
@.str.10 = private unnamed_addr constant [24 x i8] c"reaping worker threads\0A\00", align 1
@.str.11 = private unnamed_addr constant [32 x i8] c"all background threads stopped\0A\00", align 1
@init_cond = internal global %union.pthread_cond_t zeroinitializer, align 8

; Function Attrs: nounwind uwtable
define internal void @wait_for_thread_registration(i32 noundef %0) #0 {
  %2 = alloca i32, align 4
  store i32 %0, ptr %2, align 4, !tbaa !4
  br label %3

3:                                                ; preds = %7, %1
  %4 = load i32, ptr @init_count, align 4, !tbaa !4
  %5 = load i32, ptr %2, align 4, !tbaa !4
  %6 = icmp slt i32 %4, %5
  br i1 %6, label %7, label %9

7:                                                ; preds = %3
  %8 = call i32 @pthread_cond_wait(ptr noundef @init_cond, ptr noundef @init_lock)
  br label %3, !llvm.loop !51

9:                                                ; preds = %3
  ret void
}

; Function Attrs: nounwind uwtable
define dso_local void @stop_threads() #0 {
  %1 = alloca i32, align 4
  call void @llvm.lifetime.start.p0(i64 4, ptr %1) #8
  call void @stop_assoc_maintenance_thread()
  %2 = load i32, ptr getelementptr inbounds nuw (%struct.settings, ptr @settings, i32 0, i32 5), align 8, !tbaa !52
  %3 = icmp sgt i32 %2, 0
  br i1 %3, label %4, label %7

4:                                                ; preds = %0
  %5 = load ptr, ptr @stderr, align 8, !tbaa !18
  %6 = call i32 (ptr, ptr, ...) @fprintf(ptr noundef %5, ptr noundef @.str.1) #8
  br label %7

7:                                                ; preds = %4, %0
  %8 = load i32, ptr getelementptr inbounds nuw (%struct.settings, ptr @settings, i32 0, i32 5), align 8, !tbaa !52
  %9 = icmp sgt i32 %8, 0
  br i1 %9, label %10, label %13

10:                                               ; preds = %7
  %11 = load ptr, ptr @stderr, align 8, !tbaa !18
  %12 = call i32 (ptr, ptr, ...) @fprintf(ptr noundef %11, ptr noundef @.str.2) #8
  br label %13

13:                                               ; preds = %10, %7
  %14 = call i32 @pthread_mutex_lock(ptr noundef @worker_hang_lock) #8
  %15 = call i32 @pthread_mutex_lock(ptr noundef @init_lock) #8
  store i32 0, ptr @init_count, align 4, !tbaa !4
  store i32 0, ptr %1, align 4, !tbaa !4
  br label %16

16:                                               ; preds = %25, %13
  %17 = load i32, ptr %1, align 4, !tbaa !4
  %18 = load i32, ptr getelementptr inbounds nuw (%struct.settings, ptr @settings, i32 0, i32 13), align 4, !tbaa !22
  %19 = icmp slt i32 %17, %18
  br i1 %19, label %20, label %28

20:                                               ; preds = %16
  %21 = load ptr, ptr @threads, align 8, !tbaa !8
  %22 = load i32, ptr %1, align 4, !tbaa !4
  %23 = sext i32 %22 to i64
  %24 = getelementptr inbounds %struct.LIBEVENT_THREAD, ptr %21, i64 %23
  call void @notify_worker_fd(ptr noundef %24, i32 noundef 0, i32 noundef 4)
  br label %25

25:                                               ; preds = %20
  %26 = load i32, ptr %1, align 4, !tbaa !4
  %27 = add nsw i32 %26, 1
  store i32 %27, ptr %1, align 4, !tbaa !4
  br label %16, !llvm.loop !53

28:                                               ; preds = %16
  %29 = load i32, ptr getelementptr inbounds nuw (%struct.settings, ptr @settings, i32 0, i32 13), align 4, !tbaa !22
  call void @wait_for_thread_registration(i32 noundef %29)
  %30 = call i32 @pthread_mutex_unlock(ptr noundef @init_lock) #8
  %31 = load i32, ptr getelementptr inbounds nuw (%struct.settings, ptr @settings, i32 0, i32 5), align 8, !tbaa !52
  %32 = icmp sgt i32 %31, 0
  br i1 %32, label %33, label %36

33:                                               ; preds = %28
  %34 = load ptr, ptr @stderr, align 8, !tbaa !18
  %35 = call i32 (ptr, ptr, ...) @fprintf(ptr noundef %34, ptr noundef @.str.3) #8
  br label %36

36:                                               ; preds = %33, %28
  %37 = call i32 @stop_item_crawler_thread(i1 noundef zeroext true)
  %38 = load i32, ptr getelementptr inbounds nuw (%struct.settings, ptr @settings, i32 0, i32 5), align 8, !tbaa !52
  %39 = icmp sgt i32 %38, 0
  br i1 %39, label %40, label %43

40:                                               ; preds = %36
  %41 = load ptr, ptr @stderr, align 8, !tbaa !18
  %42 = call i32 (ptr, ptr, ...) @fprintf(ptr noundef %41, ptr noundef @.str.4) #8
  br label %43

43:                                               ; preds = %40, %36
  %44 = load i8, ptr getelementptr inbounds nuw (%struct.settings, ptr @settings, i32 0, i32 28), align 1, !tbaa !54, !range !20, !noundef !21
  %45 = trunc i8 %44 to i1
  br i1 %45, label %46, label %54

46:                                               ; preds = %43
  %47 = call i32 @stop_lru_maintainer_thread()
  %48 = load i32, ptr getelementptr inbounds nuw (%struct.settings, ptr @settings, i32 0, i32 5), align 8, !tbaa !52
  %49 = icmp sgt i32 %48, 0
  br i1 %49, label %50, label %53

50:                                               ; preds = %46
  %51 = load ptr, ptr @stderr, align 8, !tbaa !18
  %52 = call i32 (ptr, ptr, ...) @fprintf(ptr noundef %51, ptr noundef @.str.5) #8
  br label %53

53:                                               ; preds = %50, %46
  br label %54

54:                                               ; preds = %53, %43
  %55 = load i8, ptr getelementptr inbounds nuw (%struct.settings, ptr @settings, i32 0, i32 30), align 1, !tbaa !55, !range !20, !noundef !21
  %56 = trunc i8 %55 to i1
  br i1 %56, label %57, label %65

57:                                               ; preds = %54
  %58 = load ptr, ptr getelementptr inbounds nuw (%struct.settings, ptr @settings, i32 0, i32 59), align 8, !tbaa !12
  call void @stop_slab_maintenance_thread(ptr noundef %58)
  %59 = load i32, ptr getelementptr inbounds nuw (%struct.settings, ptr @settings, i32 0, i32 5), align 8, !tbaa !52
  %60 = icmp sgt i32 %59, 0
  br i1 %60, label %61, label %64

61:                                               ; preds = %57
  %62 = load ptr, ptr @stderr, align 8, !tbaa !18
  %63 = call i32 (ptr, ptr, ...) @fprintf(ptr noundef %62, ptr noundef @.str.6) #8
  br label %64

64:                                               ; preds = %61, %57
  br label %65

65:                                               ; preds = %64, %54
  call void @logger_stop()
  %66 = load i32, ptr getelementptr inbounds nuw (%struct.settings, ptr @settings, i32 0, i32 5), align 8, !tbaa !52
  %67 = icmp sgt i32 %66, 0
  br i1 %67, label %68, label %71

68:                                               ; preds = %65
  %69 = load ptr, ptr @stderr, align 8, !tbaa !18
  %70 = call i32 (ptr, ptr, ...) @fprintf(ptr noundef %69, ptr noundef @.str.7) #8
  br label %71

71:                                               ; preds = %68, %65
  %72 = call i32 @stop_conn_timeout_thread()
  %73 = load i32, ptr getelementptr inbounds nuw (%struct.settings, ptr @settings, i32 0, i32 5), align 8, !tbaa !52
  %74 = icmp sgt i32 %73, 0
  br i1 %74, label %75, label %78

75:                                               ; preds = %71
  %76 = load ptr, ptr @stderr, align 8, !tbaa !18
  %77 = call i32 (ptr, ptr, ...) @fprintf(ptr noundef %76, ptr noundef @.str.8) #8
  br label %78

78:                                               ; preds = %75, %71
  %79 = load i32, ptr getelementptr inbounds nuw (%struct.settings, ptr @settings, i32 0, i32 5), align 8, !tbaa !52
  %80 = icmp sgt i32 %79, 0
  br i1 %80, label %81, label %84

81:                                               ; preds = %78
  %82 = load ptr, ptr @stderr, align 8, !tbaa !18
  %83 = call i32 (ptr, ptr, ...) @fprintf(ptr noundef %82, ptr noundef @.str.9) #8
  br label %84

84:                                               ; preds = %81, %78
  call void @conn_close_all()
  %85 = call i32 @pthread_mutex_unlock(ptr noundef @worker_hang_lock) #8
  %86 = load i32, ptr getelementptr inbounds nuw (%struct.settings, ptr @settings, i32 0, i32 5), align 8, !tbaa !52
  %87 = icmp sgt i32 %86, 0
  br i1 %87, label %88, label %91

88:                                               ; preds = %84
  %89 = load ptr, ptr @stderr, align 8, !tbaa !18
  %90 = call i32 (ptr, ptr, ...) @fprintf(ptr noundef %89, ptr noundef @.str.10) #8
  br label %91

91:                                               ; preds = %88, %84
  store i32 0, ptr %1, align 4, !tbaa !4
  br label %92

92:                                               ; preds = %104, %91
  %93 = load i32, ptr %1, align 4, !tbaa !4
  %94 = load i32, ptr getelementptr inbounds nuw (%struct.settings, ptr @settings, i32 0, i32 13), align 4, !tbaa !22
  %95 = icmp slt i32 %93, %94
  br i1 %95, label %96, label %107

96:                                               ; preds = %92
  %97 = load ptr, ptr @threads, align 8, !tbaa !8
  %98 = load i32, ptr %1, align 4, !tbaa !4
  %99 = sext i32 %98 to i64
  %100 = getelementptr inbounds %struct.LIBEVENT_THREAD, ptr %97, i64 %99
  %101 = getelementptr inbounds nuw %struct.LIBEVENT_THREAD, ptr %100, i32 0, i32 0
  %102 = load i64, ptr %101, align 8, !tbaa !56
  %103 = call i32 @pthread_join(i64 noundef %102, ptr noundef null)
  br label %104

104:                                              ; preds = %96
  %105 = load i32, ptr %1, align 4, !tbaa !4
  %106 = add nsw i32 %105, 1
  store i32 %106, ptr %1, align 4, !tbaa !4
  br label %92, !llvm.loop !57

107:                                              ; preds = %92
  %108 = load i32, ptr getelementptr inbounds nuw (%struct.settings, ptr @settings, i32 0, i32 5), align 8, !tbaa !52
  %109 = icmp sgt i32 %108, 0
  br i1 %109, label %110, label %113

110:                                              ; preds = %107
  %111 = load ptr, ptr @stderr, align 8, !tbaa !18
  %112 = call i32 (ptr, ptr, ...) @fprintf(ptr noundef %111, ptr noundef @.str.11) #8
  br label %113

113:                                              ; preds = %110, %107
  call void @llvm.lifetime.end.p0(i64 4, ptr %1) #8
  ret void
}