; Function Attrs: nounwind uwtable
define dso_local void @stop_threads() local_unnamed_addr #0 {
  tail call void @stop_assoc_maintenance_thread() #15
  %1 = load i32, ptr getelementptr inbounds nuw (i8, ptr @settings, i64 32), align 8, !tbaa !59
  %2 = icmp sgt i32 %1, 0
  br i1 %2, label %3, label %.thread

3:                                                ; preds = %0
  %4 = load ptr, ptr @stderr, align 8, !tbaa !18
  %5 = tail call i64 @fwrite(ptr nonnull @.str.1, i64 14, i64 1, ptr %4) #17
  %.pr = load i32, ptr getelementptr inbounds nuw (i8, ptr @settings, i64 32), align 8, !tbaa !59
  %6 = icmp sgt i32 %.pr, 0
  br i1 %6, label %7, label %.thread

7:                                                ; preds = %3
  %8 = load ptr, ptr @stderr, align 8, !tbaa !18
  %9 = tail call i64 @fwrite(ptr nonnull @.str.2, i64 23, i64 1, ptr %8) #17
  br label %.thread

.thread:                                          ; preds = %0, %7, %3
  %10 = tail call i32 @pthread_mutex_lock(ptr noundef nonnull @worker_hang_lock) #15
  %11 = tail call i32 @pthread_mutex_lock(ptr noundef nonnull @init_lock) #15
  store i32 0, ptr @init_count, align 4, !tbaa !8
  %12 = load i32, ptr getelementptr inbounds nuw (i8, ptr @settings, i64 84), align 4, !tbaa !17
  %13 = icmp sgt i32 %12, 0
  br i1 %13, label %.lr.ph, label %._crit_edge

.lr.ph:                                           ; preds = %.thread, %.lr.ph
  %indvars.iv = phi i64 [ %indvars.iv.next, %.lr.ph ], [ 0, %.thread ]
  %14 = load ptr, ptr @threads, align 8, !tbaa !4
  %15 = getelementptr inbounds nuw %struct.LIBEVENT_THREAD, ptr %14, i64 %indvars.iv
  tail call fastcc void @notify_worker_fd(ptr noundef %15, i32 noundef 0, i32 noundef 4)
  %indvars.iv.next = add nuw nsw i64 %indvars.iv, 1
  %16 = load i32, ptr getelementptr inbounds nuw (i8, ptr @settings, i64 84), align 4, !tbaa !17
  %17 = sext i32 %16 to i64
  %18 = icmp slt i64 %indvars.iv.next, %17
  br i1 %18, label %.lr.ph, label %._crit_edge.loopexit, !llvm.loop !60

._crit_edge.loopexit:                             ; preds = %.lr.ph
  %.pre = load i32, ptr @init_count, align 4, !tbaa !8
  br label %._crit_edge

._crit_edge:                                      ; preds = %._crit_edge.loopexit, %.thread
  %19 = phi i32 [ 0, %.thread ], [ %.pre, %._crit_edge.loopexit ]
  %.lcssa = phi i32 [ %12, %.thread ], [ %16, %._crit_edge.loopexit ]
  %20 = icmp slt i32 %19, %.lcssa
  br i1 %20, label %.lr.ph.i, label %wait_for_thread_registration.exit

.lr.ph.i:                                         ; preds = %._crit_edge, %.lr.ph.i
  %21 = tail call i32 @pthread_cond_wait(ptr noundef nonnull @init_cond, ptr noundef nonnull @init_lock) #15
  %22 = load i32, ptr @init_count, align 4, !tbaa !8
  %23 = icmp slt i32 %22, %.lcssa
  br i1 %23, label %.lr.ph.i, label %wait_for_thread_registration.exit, !llvm.loop !22

wait_for_thread_registration.exit:                ; preds = %.lr.ph.i, %._crit_edge
  %24 = tail call i32 @pthread_mutex_unlock(ptr noundef nonnull @init_lock) #15
  %25 = load i32, ptr getelementptr inbounds nuw (i8, ptr @settings, i64 32), align 8, !tbaa !59
  %26 = icmp sgt i32 %25, 0
  br i1 %26, label %27, label %30

27:                                               ; preds = %wait_for_thread_registration.exit
  %28 = load ptr, ptr @stderr, align 8, !tbaa !18
  %29 = tail call i64 @fwrite(ptr nonnull @.str.3, i64 34, i64 1, ptr %28) #17
  br label %30

30:                                               ; preds = %27, %wait_for_thread_registration.exit
  %31 = tail call i32 @stop_item_crawler_thread(i1 noundef zeroext true) #15
  %32 = load i32, ptr getelementptr inbounds nuw (i8, ptr @settings, i64 32), align 8, !tbaa !59
  %33 = icmp sgt i32 %32, 0
  br i1 %33, label %34, label %37

34:                                               ; preds = %30
  %35 = load ptr, ptr @stderr, align 8, !tbaa !18
  %36 = tail call i64 @fwrite(ptr nonnull @.str.4, i64 20, i64 1, ptr %35) #17
  br label %37

37:                                               ; preds = %34, %30
  %38 = load i8, ptr getelementptr inbounds nuw (i8, ptr @settings, i64 135), align 1, !tbaa !61, !range !62, !noundef !63
  %39 = trunc nuw i8 %38 to i1
  br i1 %39, label %40, label %47

40:                                               ; preds = %37
  %41 = tail call i32 @stop_lru_maintainer_thread() #15
  %42 = load i32, ptr getelementptr inbounds nuw (i8, ptr @settings, i64 32), align 8, !tbaa !59
  %43 = icmp sgt i32 %42, 0
  br i1 %43, label %44, label %47

44:                                               ; preds = %40
  %45 = load ptr, ptr @stderr, align 8, !tbaa !18
  %46 = tail call i64 @fwrite(ptr nonnull @.str.5, i64 19, i64 1, ptr %45) #17
  br label %47

47:                                               ; preds = %40, %44, %37
  %48 = load i8, ptr getelementptr inbounds nuw (i8, ptr @settings, i64 137), align 1, !tbaa !64, !range !62, !noundef !63
  %49 = trunc nuw i8 %48 to i1
  br i1 %49, label %50, label %57

50:                                               ; preds = %47
  %51 = load ptr, ptr getelementptr inbounds nuw (i8, ptr @settings, i64 264), align 8, !tbaa !10
  tail call void @stop_slab_maintenance_thread(ptr noundef %51) #15
  %52 = load i32, ptr getelementptr inbounds nuw (i8, ptr @settings, i64 32), align 8, !tbaa !59
  %53 = icmp sgt i32 %52, 0
  br i1 %53, label %54, label %57

54:                                               ; preds = %50
  %55 = load ptr, ptr @stderr, align 8, !tbaa !18
  %56 = tail call i64 @fwrite(ptr nonnull @.str.6, i64 19, i64 1, ptr %55) #17
  br label %57

57:                                               ; preds = %50, %54, %47
  tail call void @logger_stop() #15
  %58 = load i32, ptr getelementptr inbounds nuw (i8, ptr @settings, i64 32), align 8, !tbaa !59
  %59 = icmp sgt i32 %58, 0
  br i1 %59, label %60, label %63

60:                                               ; preds = %57
  %61 = load ptr, ptr @stderr, align 8, !tbaa !18
  %62 = tail call i64 @fwrite(ptr nonnull @.str.7, i64 22, i64 1, ptr %61) #17
  br label %63

63:                                               ; preds = %60, %57
  %64 = tail call i32 @stop_conn_timeout_thread() #15
  %65 = load i32, ptr getelementptr inbounds nuw (i8, ptr @settings, i64 32), align 8, !tbaa !59
  %66 = icmp sgt i32 %65, 0
  br i1 %66, label %67, label %.thread8

67:                                               ; preds = %63
  %68 = load ptr, ptr @stderr, align 8, !tbaa !18
  %69 = tail call i64 @fwrite(ptr nonnull @.str.8, i64 28, i64 1, ptr %68) #17
  %.pr7 = load i32, ptr getelementptr inbounds nuw (i8, ptr @settings, i64 32), align 8, !tbaa !59
  %70 = icmp sgt i32 %.pr7, 0
  br i1 %70, label %71, label %.thread8

71:                                               ; preds = %67
  %72 = load ptr, ptr @stderr, align 8, !tbaa !18
  %73 = tail call i64 @fwrite(ptr nonnull @.str.9, i64 20, i64 1, ptr %72) #17
  br label %.thread8

.thread8:                                         ; preds = %63, %71, %67
  tail call void @conn_close_all() #15
  %74 = tail call i32 @pthread_mutex_unlock(ptr noundef nonnull @worker_hang_lock) #15
  %75 = load i32, ptr getelementptr inbounds nuw (i8, ptr @settings, i64 32), align 8, !tbaa !59
  %76 = icmp sgt i32 %75, 0
  br i1 %76, label %77, label %80

77:                                               ; preds = %.thread8
  %78 = load ptr, ptr @stderr, align 8, !tbaa !18
  %79 = tail call i64 @fwrite(ptr nonnull @.str.10, i64 23, i64 1, ptr %78) #17
  br label %80

80:                                               ; preds = %77, %.thread8
  %81 = load i32, ptr getelementptr inbounds nuw (i8, ptr @settings, i64 84), align 4, !tbaa !17
  %82 = icmp sgt i32 %81, 0
  br i1 %82, label %.lr.ph12, label %._crit_edge13

.lr.ph12:                                         ; preds = %80, %.lr.ph12
  %indvars.iv16 = phi i64 [ %indvars.iv.next17, %.lr.ph12 ], [ 0, %80 ]
  %83 = load ptr, ptr @threads, align 8, !tbaa !4
  %84 = getelementptr inbounds nuw %struct.LIBEVENT_THREAD, ptr %83, i64 %indvars.iv16
  %85 = load i64, ptr %84, align 8, !tbaa !65
  %86 = tail call i32 @pthread_join(i64 noundef %85, ptr noundef null) #15
  %indvars.iv.next17 = add nuw nsw i64 %indvars.iv16, 1
  %87 = load i32, ptr getelementptr inbounds nuw (i8, ptr @settings, i64 84), align 4, !tbaa !17
  %88 = sext i32 %87 to i64
  %89 = icmp slt i64 %indvars.iv.next17, %88
  br i1 %89, label %.lr.ph12, label %._crit_edge13, !llvm.loop !66

._crit_edge13:                                    ; preds = %.lr.ph12, %80
  %90 = load i32, ptr getelementptr inbounds nuw (i8, ptr @settings, i64 32), align 8, !tbaa !59
  %91 = icmp sgt i32 %90, 0
  br i1 %91, label %92, label %95

92:                                               ; preds = %._crit_edge13
  %93 = load ptr, ptr @stderr, align 8, !tbaa !18
  %94 = tail call i64 @fwrite(ptr nonnull @.str.11, i64 31, i64 1, ptr %93) #17
  br label %95

95:                                               ; preds = %92, %._crit_edge13
  ret void
}